#include <math.h>
#include <stdio.h>
#include <stdlib.h>
#include <string.h>

int main(){
    int w,i;
	int md[12]={31,28,31,30,31,30,31,31,30,31,30,31},mzs[12],shis[12];
	scanf("%d",&w);
	mzs[0]=31;
	for(i=1;i<12;i++) mzs[i]=mzs[i-1]+md[i];
	shis[0]=13-1;
	for(i=1;i<12;i++) shis[i]=mzs[i-1]+13-1;
	for(i=0;i<12;i++) {
		if(shis[i]%7==0&&w==5) printf("%d\n",i+1);
		else if(shis[i]%7==1&&w==4) printf("%d\n",i+1);
		else if(shis[i]%7==2&&w==3) printf("%d\n",i+1);
		else if(shis[i]%7==3&&w==2) printf("%d\n",i+1);
		else if(shis[i]%7==4&&w==1) printf("%d\n",i+1);
		else if(shis[i]%7==5&&w==7) printf("%d\n",i+1);
		else if(shis[i]%7==6&&w==6) printf("%d\n",i+1);
	}
	return 0;
}
